; Function Attrs: mustprogress uwtable
define hidden void @_ZN11check_logic5resetEv(ptr noundef nonnull align 8 captures(none) dereferenceable(8) %0) local_unnamed_addr #7 align 2 {
  %2 = load ptr, ptr %0, align 8, !tbaa !3
  %.not = icmp eq ptr %2, null
  br i1 %.not, label %3, label %_Z7deallocIN11check_logic3impEEvPT_.exit

_Z7deallocIN11check_logic3impEEvPT_.exit:         ; preds = %1
  tail call void @_ZN11check_logic3impD2Ev(ptr noundef nonnull align 8 dereferenceable(344) %2) #24
  tail call void @_ZN6memory10deallocateEPv(ptr noundef nonnull %2)
  br label %3

3:                                                ; preds = %_Z7deallocIN11check_logic3impEEvPT_.exit, %1
  store ptr null, ptr %0, align 8, !tbaa !3
  ret void
}